ccopy_reg
_reconstructor
p1
(csklearn.linear_model.base
LinearRegression
p2
c__builtin__
object
p3
NtRp4
(dp5
S'normalize'
p6
I00
sS'n_jobs'
p7
I1
sS'rank_'
p8
I7
sS'fit_intercept'
p9
I01
sS'_residues'
p10
cnumpy.core.multiarray
scalar
p11
(cnumpy
dtype
p12
(S'f8'
I0
I1
tRp13
(I3
S'<'
NNNI-1
I-1
I0
tbS'v0mFa\x073C'
tRp14
sS'singular_'
p15
cnumpy.core.multiarray
_reconstruct
p16
(cnumpy
ndarray
p17
(I0
tS'b'
tRp18
(I1
(I7
tg13
I00
S"\xde\x14\xa6\x1c>\x01f@\xc4~\xff\xb6\rCK@\x16\x82\xdbBz\tG@'^\x90\xcf\xc1\xf2B@\xf0\xae\x01LSu:@=S\xd6\xd7\xba\xbd,@\x8c\xc4=\x0b\xea\xeb\x88="
tbsS'coef_'
p19
g16
(g17
(I0
tS'b'
tRp20
(I1
(I7
tg13
I00
S"'Z\xb7H/4`\xc3*\x12\xb7H/4`\xc3nJ\xb7H/4`\xc3r\x92\xb7H/4`\xc3\xdc\xa8\xb6H/4`\xc3\xc4Q\xb7H/4`\xc3\x13\xe8\xb6H/4`C"
tbsS'_sklearn_version'
p21
S'0.18.1'
p22
sS'copy_X'
p23
I01
sS'intercept_'
p24
g11
(g13
S'\x9f\xde\xbc\xa4\x93\xf70A'
tRp25
sb.